; Function Attrs: mustprogress nofree nounwind uwtable
define hidden noundef zeroext i1 @_ZN10duckdb_re212re2_internal5ParseIxEEbPKcmPT_i(ptr noundef readonly captures(none) %0, i64 noundef %1, ptr noundef writeonly captures(address_is_null) %2, i32 noundef %3) local_unnamed_addr #16 {
  %5 = alloca [33 x i8], align 16
  %6 = alloca ptr, align 8
  %7 = icmp eq i64 %1, 0
  br i1 %7, label %46, label %8

8:                                                ; preds = %4
  call void @llvm.lifetime.start.p0(i64 33, ptr nonnull %5) #31
  %9 = load i8, ptr %0, align 1, !tbaa !26
  %10 = sext i8 %9 to i32
  %11 = tail call i32 @isspace(i32 noundef %10) #32
  %.not.i = icmp eq i32 %11, 0
  br i1 %.not.i, label %.critedge.i, label %_ZN10duckdb_re212re2_internalL15TerminateNumberEPcmPKcPmb.exit

.critedge.i:                                      ; preds = %8
  %12 = icmp eq i8 %9, 45
  %.244.idx.i = zext i1 %12 to i64
  %.244.i = getelementptr inbounds nuw i8, ptr %0, i64 %.244.idx.i
  %13 = sext i1 %12 to i64
  %.2.i = add i64 %1, %13
  %14 = icmp ugt i64 %.2.i, 2
  br i1 %14, label %15, label %.critedge2.i

15:                                               ; preds = %.critedge.i
  %16 = load i8, ptr %.244.i, align 1, !tbaa !26
  %17 = icmp eq i8 %16, 48
  br i1 %17, label %18, label %.critedge2.i

18:                                               ; preds = %15
  %19 = getelementptr inbounds nuw i8, ptr %.244.i, i64 1
  %20 = load i8, ptr %19, align 1, !tbaa !26
  %21 = icmp eq i8 %20, 48
  br i1 %21, label %.preheader.preheader.i, label %.critedge2.i

.preheader.preheader.i:                           ; preds = %18
  %22 = getelementptr i8, ptr %0, i64 %.2.i
  %23 = getelementptr i8, ptr %22, i64 %.244.idx.i
  %scevgep.i = getelementptr i8, ptr %23, i64 -2
  br label %.preheader.i

.preheader.i:                                     ; preds = %27, %.preheader.preheader.i
  %.446.i = phi ptr [ %29, %27 ], [ %.244.i, %.preheader.preheader.i ]
  %.4.i = phi i64 [ %28, %27 ], [ %.2.i, %.preheader.preheader.i ]
  %24 = getelementptr inbounds nuw i8, ptr %.446.i, i64 2
  %25 = load i8, ptr %24, align 1, !tbaa !26
  %26 = icmp eq i8 %25, 48
  br i1 %26, label %27, label %.critedge2.i

27:                                               ; preds = %.preheader.i
  %28 = add i64 %.4.i, -1
  %29 = getelementptr inbounds nuw i8, ptr %.446.i, i64 1
  %.old3.i = icmp ugt i64 %28, 2
  br i1 %.old3.i, label %.preheader.i, label %.critedge2.i

.critedge2.i:                                     ; preds = %27, %.preheader.i, %18, %15, %.critedge.i
  %.345.i = phi ptr [ %.244.i, %18 ], [ %.244.i, %15 ], [ %.244.i, %.critedge.i ], [ %scevgep.i, %27 ], [ %.446.i, %.preheader.i ]
  %.3.i = phi i64 [ %.2.i, %18 ], [ %.2.i, %15 ], [ %.2.i, %.critedge.i ], [ 2, %27 ], [ %.4.i, %.preheader.i ]
  %30 = add i64 %.3.i, %.244.idx.i
  %31 = icmp ugt i64 %30, 32
  br i1 %31, label %_ZN10duckdb_re212re2_internalL15TerminateNumberEPcmPKcPmb.exit, label %32

32:                                               ; preds = %.critedge2.i
  %33 = getelementptr inbounds i8, ptr %.345.i, i64 %13
  call void @llvm.memmove.p0.p0.i64(ptr nonnull align 16 %5, ptr nonnull align 1 %33, i64 %30, i1 false)
  br i1 %12, label %34, label %.thread76.i

34:                                               ; preds = %32
  store i8 45, ptr %5, align 16, !tbaa !26
  br label %.thread76.i

.thread76.i:                                      ; preds = %34, %32
  %35 = getelementptr inbounds nuw i8, ptr %5, i64 %30
  store i8 0, ptr %35, align 1, !tbaa !26
  br label %_ZN10duckdb_re212re2_internalL15TerminateNumberEPcmPKcPmb.exit

_ZN10duckdb_re212re2_internalL15TerminateNumberEPcmPKcPmb.exit: ; preds = %8, %.critedge2.i, %.thread76.i
  %.010 = phi i64 [ %1, %.critedge2.i ], [ %30, %.thread76.i ], [ %1, %8 ]
  %.040.i = phi ptr [ @.str.8, %.critedge2.i ], [ %5, %.thread76.i ], [ @.str.8, %8 ]
  call void @llvm.lifetime.start.p0(i64 8, ptr nonnull %6) #31
  %36 = tail call ptr @__errno_location() #37
  store i32 0, ptr %36, align 4, !tbaa !3
  %37 = call i64 @strtoll(ptr noundef nonnull %.040.i, ptr noundef nonnull %6, i32 noundef %3) #31
  %38 = load ptr, ptr %6, align 8, !tbaa !175
  %39 = getelementptr inbounds nuw i8, ptr %.040.i, i64 %.010
  %.not = icmp eq ptr %38, %39
  br i1 %.not, label %40, label %45

40:                                               ; preds = %_ZN10duckdb_re212re2_internalL15TerminateNumberEPcmPKcPmb.exit
  %41 = load i32, ptr %36, align 4, !tbaa !3
  %.not8 = icmp eq i32 %41, 0
  br i1 %.not8, label %42, label %45

42:                                               ; preds = %40
  %43 = icmp eq ptr %2, null
  br i1 %43, label %45, label %44

44:                                               ; preds = %42
  store i64 %37, ptr %2, align 8, !tbaa !209
  br label %45

45:                                               ; preds = %42, %40, %_ZN10duckdb_re212re2_internalL15TerminateNumberEPcmPKcPmb.exit, %44
  %.1 = phi i1 [ true, %44 ], [ false, %_ZN10duckdb_re212re2_internalL15TerminateNumberEPcmPKcPmb.exit ], [ false, %40 ], [ true, %42 ]
  call void @llvm.lifetime.end.p0(i64 8, ptr nonnull %6) #31
  call void @llvm.lifetime.end.p0(i64 33, ptr nonnull %5) #31
  br label %46

46:                                               ; preds = %4, %45
  %.0 = phi i1 [ %.1, %45 ], [ false, %4 ]
  ret i1 %.0
}